
./ls:     file format elf32-i386


Disassembly of section .text:

08000000 <init_libduck>:
 8000000:	83 ec 0c             	sub    $0xc,%esp
 8000003:	89 d8                	mov    %ebx,%eax
 8000005:	a3 6c 11 00 08       	mov    %eax,0x800116c
 800000a:	89 c8                	mov    %ecx,%eax
 800000c:	a3 68 11 00 08       	mov    %eax,0x8001168
 8000011:	e8 5e 00 00 00       	call   8000074 <init_heap>
 8000016:	83 c4 0c             	add    $0xc,%esp
 8000019:	c3                   	ret    

0800001a <_start>:
 800001a:	83 ec 0c             	sub    $0xc,%esp
 800001d:	e8 de ff ff ff       	call   8000000 <init_libduck>
 8000022:	83 ec 08             	sub    $0x8,%esp
 8000025:	ff 35 68 11 00 08    	pushl  0x8001168
 800002b:	ff 35 6c 11 00 08    	pushl  0x800116c
 8000031:	e8 eb 08 00 00       	call   8000921 <main>
 8000036:	e8 04 00 00 00       	call   800003f <_exit>
 800003b:	83 c4 1c             	add    $0x1c,%esp
 800003e:	c3                   	ret    

0800003f <_exit>:
 800003f:	b8 01 00 00 00       	mov    $0x1,%eax
 8000044:	cd 82                	int    $0x82
 8000046:	c3                   	ret    

08000047 <task_yield>:
 8000047:	b8 02 00 00 00       	mov    $0x2,%eax
 800004c:	cd 82                	int    $0x82
 800004e:	c3                   	ret    

0800004f <screen_clear>:
 800004f:	b8 03 00 00 00       	mov    $0x3,%eax
 8000054:	cd 83                	int    $0x83
 8000056:	c3                   	ret    

08000057 <putc>:
 8000057:	53                   	push   %ebx
 8000058:	0f b6 5c 24 08       	movzbl 0x8(%esp),%ebx
 800005d:	b8 01 00 00 00       	mov    $0x1,%eax
 8000062:	cd 83                	int    $0x83
 8000064:	5b                   	pop    %ebx
 8000065:	c3                   	ret    

08000066 <puts>:
 8000066:	53                   	push   %ebx
 8000067:	8b 5c 24 08          	mov    0x8(%esp),%ebx
 800006b:	b8 02 00 00 00       	mov    $0x2,%eax
 8000070:	cd 83                	int    $0x83
 8000072:	5b                   	pop    %ebx
 8000073:	c3                   	ret    

08000074 <init_heap>:
 8000074:	c7 05 70 11 00 08 00 	movl   $0x701000,0x8001170
 800007b:	10 70 00 
 800007e:	c7 05 01 00 70 00 ff 	movl   $0xffffffff,0x700001
 8000085:	ff ff ff 
 8000088:	c6 05 00 00 70 00 00 	movb   $0x0,0x700000
 800008f:	c7 05 05 00 70 00 00 	movl   $0x0,0x700005
 8000096:	00 00 00 
 8000099:	c3                   	ret    

0800009a <extend_heap>:
 800009a:	53                   	push   %ebx
 800009b:	8b 1d 70 11 00 08    	mov    0x8001170,%ebx
 80000a1:	b8 03 00 00 00       	mov    $0x3,%eax
 80000a6:	cd 82                	int    $0x82
 80000a8:	81 c3 00 10 00 00    	add    $0x1000,%ebx
 80000ae:	89 1d 70 11 00 08    	mov    %ebx,0x8001170
 80000b4:	5b                   	pop    %ebx
 80000b5:	c3                   	ret    

080000b6 <malloc>:
 80000b6:	53                   	push   %ebx
 80000b7:	8b 44 24 08          	mov    0x8(%esp),%eax
 80000bb:	bb 00 00 70 00       	mov    $0x700000,%ebx
 80000c0:	eb 03                	jmp    80000c5 <malloc+0xf>
 80000c2:	8b 5b 05             	mov    0x5(%ebx),%ebx
 80000c5:	85 db                	test   %ebx,%ebx
 80000c7:	74 0a                	je     80000d3 <malloc+0x1d>
 80000c9:	80 3b 00             	cmpb   $0x0,(%ebx)
 80000cc:	75 f4                	jne    80000c2 <malloc+0xc>
 80000ce:	39 43 01             	cmp    %eax,0x1(%ebx)
 80000d1:	72 ef                	jb     80000c2 <malloc+0xc>
 80000d3:	83 7b 01 ff          	cmpl   $0xffffffff,0x1(%ebx)
 80000d7:	75 38                	jne    8000111 <malloc+0x5b>
 80000d9:	89 43 01             	mov    %eax,0x1(%ebx)
 80000dc:	c6 03 01             	movb   $0x1,(%ebx)
 80000df:	8d 44 03 09          	lea    0x9(%ebx,%eax,1),%eax
 80000e3:	89 43 05             	mov    %eax,0x5(%ebx)
 80000e6:	eb 05                	jmp    80000ed <malloc+0x37>
 80000e8:	e8 ad ff ff ff       	call   800009a <extend_heap>
 80000ed:	8b 43 05             	mov    0x5(%ebx),%eax
 80000f0:	3b 05 70 11 00 08    	cmp    0x8001170,%eax
 80000f6:	77 f0                	ja     80000e8 <malloc+0x32>
 80000f8:	c7 40 01 ff ff ff ff 	movl   $0xffffffff,0x1(%eax)
 80000ff:	8b 43 05             	mov    0x5(%ebx),%eax
 8000102:	c6 00 00             	movb   $0x0,(%eax)
 8000105:	8b 43 05             	mov    0x5(%ebx),%eax
 8000108:	c7 40 05 00 00 00 00 	movl   $0x0,0x5(%eax)
 800010f:	eb 03                	jmp    8000114 <malloc+0x5e>
 8000111:	c6 03 01             	movb   $0x1,(%ebx)
 8000114:	3b 1d 70 11 00 08    	cmp    0x8001170,%ebx
 800011a:	77 05                	ja     8000121 <malloc+0x6b>
 800011c:	8d 43 09             	lea    0x9(%ebx),%eax
 800011f:	eb 05                	jmp    8000126 <malloc+0x70>
 8000121:	b8 00 00 00 00       	mov    $0x0,%eax
 8000126:	5b                   	pop    %ebx
 8000127:	c3                   	ret    

08000128 <free>:
 8000128:	8b 44 24 04          	mov    0x4(%esp),%eax
 800012c:	c6 40 f7 00          	movb   $0x0,-0x9(%eax)
 8000130:	c3                   	ret    

08000131 <getc>:
 8000131:	b8 01 00 00 00       	mov    $0x1,%eax
 8000136:	cd 84                	int    $0x84
 8000138:	89 d0                	mov    %edx,%eax
 800013a:	c3                   	ret    

0800013b <gets>:
 800013b:	53                   	push   %ebx
 800013c:	8b 44 24 08          	mov    0x8(%esp),%eax
 8000140:	89 c3                	mov    %eax,%ebx
 8000142:	b8 02 00 00 00       	mov    $0x2,%eax
 8000147:	cd 84                	int    $0x84
 8000149:	5b                   	pop    %ebx
 800014a:	c3                   	ret    

0800014b <execve>:
 800014b:	53                   	push   %ebx
 800014c:	8b 5c 24 08          	mov    0x8(%esp),%ebx
 8000150:	90                   	nop
 8000151:	8b 4c 24 10          	mov    0x10(%esp),%ecx
 8000155:	90                   	nop
 8000156:	8b 54 24 0c          	mov    0xc(%esp),%edx
 800015a:	90                   	nop
 800015b:	b8 04 00 00 00       	mov    $0x4,%eax
 8000160:	cd 82                	int    $0x82
 8000162:	83 7c 24 14 00       	cmpl   $0x0,0x14(%esp)
 8000167:	74 07                	je     8000170 <execve+0x25>
 8000169:	b8 02 00 00 00       	mov    $0x2,%eax
 800016e:	cd 82                	int    $0x82
 8000170:	5b                   	pop    %ebx
 8000171:	c3                   	ret    

08000172 <load_inode>:
 8000172:	53                   	push   %ebx
 8000173:	8b 5c 24 08          	mov    0x8(%esp),%ebx
 8000177:	90                   	nop
 8000178:	8b 4c 24 0c          	mov    0xc(%esp),%ecx
 800017c:	90                   	nop
 800017d:	b8 01 00 00 00       	mov    $0x1,%eax
 8000182:	cd 85                	int    $0x85
 8000184:	5b                   	pop    %ebx
 8000185:	c3                   	ret    

08000186 <load_directory_structure>:
 8000186:	53                   	push   %ebx
 8000187:	8b 5c 24 08          	mov    0x8(%esp),%ebx
 800018b:	90                   	nop
 800018c:	8b 4c 24 0c          	mov    0xc(%esp),%ecx
 8000190:	90                   	nop
 8000191:	b8 02 00 00 00       	mov    $0x2,%eax
 8000196:	cd 85                	int    $0x85
 8000198:	5b                   	pop    %ebx
 8000199:	c3                   	ret    

0800019a <load_file>:
 800019a:	53                   	push   %ebx
 800019b:	83 ec 10             	sub    $0x10,%esp
 800019e:	8b 44 24 18          	mov    0x18(%esp),%eax
 80001a2:	89 c3                	mov    %eax,%ebx
 80001a4:	90                   	nop
 80001a5:	8b 44 24 1c          	mov    0x1c(%esp),%eax
 80001a9:	89 c1                	mov    %eax,%ecx
 80001ab:	90                   	nop
 80001ac:	8b 44 24 20          	mov    0x20(%esp),%eax
 80001b0:	89 c2                	mov    %eax,%edx
 80001b2:	90                   	nop
 80001b3:	8b 44 24 24          	mov    0x24(%esp),%eax
 80001b7:	89 c7                	mov    %eax,%edi
 80001b9:	89 44 24 0c          	mov    %eax,0xc(%esp)
 80001bd:	b8 03 00 00 00       	mov    $0x3,%eax
 80001c2:	cd 85                	int    $0x85
 80001c4:	90                   	nop
 80001c5:	83 c4 10             	add    $0x10,%esp
 80001c8:	5b                   	pop    %ebx
 80001c9:	c3                   	ret    

080001ca <path_to_inode>:
 80001ca:	53                   	push   %ebx
 80001cb:	83 ec 10             	sub    $0x10,%esp
 80001ce:	8b 44 24 18          	mov    0x18(%esp),%eax
 80001d2:	89 c3                	mov    %eax,%ebx
 80001d4:	90                   	nop
 80001d5:	b8 04 00 00 00       	mov    $0x4,%eax
 80001da:	cd 85                	int    $0x85
 80001dc:	89 d0                	mov    %edx,%eax
 80001de:	89 44 24 0c          	mov    %eax,0xc(%esp)
 80001e2:	8b 44 24 0c          	mov    0xc(%esp),%eax
 80001e6:	83 c4 10             	add    $0x10,%esp
 80001e9:	5b                   	pop    %ebx
 80001ea:	c3                   	ret    

080001eb <itoa>:
 80001eb:	55                   	push   %ebp
 80001ec:	89 e5                	mov    %esp,%ebp
 80001ee:	83 ec 10             	sub    $0x10,%esp
 80001f1:	83 7d 10 01          	cmpl   $0x1,0x10(%ebp)
 80001f5:	7e 06                	jle    80001fd <itoa+0x12>
 80001f7:	83 7d 10 24          	cmpl   $0x24,0x10(%ebp)
 80001fb:	7e 0e                	jle    800020b <itoa+0x20>
 80001fd:	8b 45 0c             	mov    0xc(%ebp),%eax
 8000200:	c6 00 00             	movb   $0x0,(%eax)
 8000203:	8b 45 0c             	mov    0xc(%ebp),%eax
 8000206:	e9 9a 00 00 00       	jmp    80002a5 <itoa+0xba>
 800020b:	8b 45 0c             	mov    0xc(%ebp),%eax
 800020e:	89 45 fc             	mov    %eax,-0x4(%ebp)
 8000211:	8b 45 fc             	mov    -0x4(%ebp),%eax
 8000214:	89 45 f4             	mov    %eax,-0xc(%ebp)
 8000217:	83 7d 08 00          	cmpl   $0x0,0x8(%ebp)
 800021b:	79 12                	jns    800022f <itoa+0x44>
 800021d:	83 7d 10 0a          	cmpl   $0xa,0x10(%ebp)
 8000221:	75 0c                	jne    800022f <itoa+0x44>
 8000223:	8b 45 fc             	mov    -0x4(%ebp),%eax
 8000226:	8d 50 01             	lea    0x1(%eax),%edx
 8000229:	89 55 fc             	mov    %edx,-0x4(%ebp)
 800022c:	c6 00 2d             	movb   $0x2d,(%eax)
 800022f:	8b 45 fc             	mov    -0x4(%ebp),%eax
 8000232:	89 45 f8             	mov    %eax,-0x8(%ebp)
 8000235:	8b 4d fc             	mov    -0x4(%ebp),%ecx
 8000238:	8d 41 01             	lea    0x1(%ecx),%eax
 800023b:	89 45 fc             	mov    %eax,-0x4(%ebp)
 800023e:	8b 45 08             	mov    0x8(%ebp),%eax
 8000241:	99                   	cltd   
 8000242:	f7 7d 10             	idivl  0x10(%ebp)
 8000245:	89 d0                	mov    %edx,%eax
 8000247:	83 c0 23             	add    $0x23,%eax
 800024a:	0f b6 80 dc 10 00 08 	movzbl 0x80010dc(%eax),%eax
 8000251:	88 01                	mov    %al,(%ecx)
 8000253:	8b 45 08             	mov    0x8(%ebp),%eax
 8000256:	99                   	cltd   
 8000257:	f7 7d 10             	idivl  0x10(%ebp)
 800025a:	89 45 08             	mov    %eax,0x8(%ebp)
 800025d:	83 7d 08 00          	cmpl   $0x0,0x8(%ebp)
 8000261:	75 d2                	jne    8000235 <itoa+0x4a>
 8000263:	8b 45 fc             	mov    -0x4(%ebp),%eax
 8000266:	8d 50 ff             	lea    -0x1(%eax),%edx
 8000269:	89 55 fc             	mov    %edx,-0x4(%ebp)
 800026c:	c6 00 00             	movb   $0x0,(%eax)
 800026f:	eb 29                	jmp    800029a <itoa+0xaf>
 8000271:	8b 45 f8             	mov    -0x8(%ebp),%eax
 8000274:	0f b6 00             	movzbl (%eax),%eax
 8000277:	88 45 f3             	mov    %al,-0xd(%ebp)
 800027a:	8b 45 f8             	mov    -0x8(%ebp),%eax
 800027d:	8d 50 01             	lea    0x1(%eax),%edx
 8000280:	89 55 f8             	mov    %edx,-0x8(%ebp)
 8000283:	8b 55 fc             	mov    -0x4(%ebp),%edx
 8000286:	0f b6 12             	movzbl (%edx),%edx
 8000289:	88 10                	mov    %dl,(%eax)
 800028b:	8b 45 fc             	mov    -0x4(%ebp),%eax
 800028e:	8d 50 ff             	lea    -0x1(%eax),%edx
 8000291:	89 55 fc             	mov    %edx,-0x4(%ebp)
 8000294:	0f b6 55 f3          	movzbl -0xd(%ebp),%edx
 8000298:	88 10                	mov    %dl,(%eax)
 800029a:	8b 45 f8             	mov    -0x8(%ebp),%eax
 800029d:	3b 45 fc             	cmp    -0x4(%ebp),%eax
 80002a0:	72 cf                	jb     8000271 <itoa+0x86>
 80002a2:	8b 45 f4             	mov    -0xc(%ebp),%eax
 80002a5:	c9                   	leave  
 80002a6:	c3                   	ret    

080002a7 <atoi>:
 80002a7:	55                   	push   %ebp
 80002a8:	89 e5                	mov    %esp,%ebp
 80002aa:	83 ec 18             	sub    $0x18,%esp
 80002ad:	c7 45 f4 00 00 00 00 	movl   $0x0,-0xc(%ebp)
 80002b4:	c7 45 f0 01 00 00 00 	movl   $0x1,-0x10(%ebp)
 80002bb:	8b 45 08             	mov    0x8(%ebp),%eax
 80002be:	0f b6 00             	movzbl (%eax),%eax
 80002c1:	3c 2b                	cmp    $0x2b,%al
 80002c3:	74 0a                	je     80002cf <atoi+0x28>
 80002c5:	8b 45 08             	mov    0x8(%ebp),%eax
 80002c8:	0f b6 00             	movzbl (%eax),%eax
 80002cb:	3c 2d                	cmp    $0x2d,%al
 80002cd:	75 39                	jne    8000308 <atoi+0x61>
 80002cf:	8b 45 08             	mov    0x8(%ebp),%eax
 80002d2:	0f b6 00             	movzbl (%eax),%eax
 80002d5:	3c 2d                	cmp    $0x2d,%al
 80002d7:	75 07                	jne    80002e0 <atoi+0x39>
 80002d9:	c7 45 f0 ff ff ff ff 	movl   $0xffffffff,-0x10(%ebp)
 80002e0:	83 45 08 01          	addl   $0x1,0x8(%ebp)
 80002e4:	eb 22                	jmp    8000308 <atoi+0x61>
 80002e6:	8b 55 f4             	mov    -0xc(%ebp),%edx
 80002e9:	89 d0                	mov    %edx,%eax
 80002eb:	c1 e0 02             	shl    $0x2,%eax
 80002ee:	01 d0                	add    %edx,%eax
 80002f0:	01 c0                	add    %eax,%eax
 80002f2:	89 45 f4             	mov    %eax,-0xc(%ebp)
 80002f5:	8b 45 08             	mov    0x8(%ebp),%eax
 80002f8:	0f b6 00             	movzbl (%eax),%eax
 80002fb:	0f be c0             	movsbl %al,%eax
 80002fe:	83 e8 30             	sub    $0x30,%eax
 8000301:	01 45 f4             	add    %eax,-0xc(%ebp)
 8000304:	83 45 08 01          	addl   $0x1,0x8(%ebp)
 8000308:	8b 45 08             	mov    0x8(%ebp),%eax
 800030b:	0f b6 00             	movzbl (%eax),%eax
 800030e:	0f be c0             	movsbl %al,%eax
 8000311:	83 ec 0c             	sub    $0xc,%esp
 8000314:	50                   	push   %eax
 8000315:	e8 10 00 00 00       	call   800032a <isdigit>
 800031a:	83 c4 10             	add    $0x10,%esp
 800031d:	84 c0                	test   %al,%al
 800031f:	75 c5                	jne    80002e6 <atoi+0x3f>
 8000321:	8b 45 f4             	mov    -0xc(%ebp),%eax
 8000324:	0f af 45 f0          	imul   -0x10(%ebp),%eax
 8000328:	c9                   	leave  
 8000329:	c3                   	ret    

0800032a <isdigit>:
 800032a:	55                   	push   %ebp
 800032b:	89 e5                	mov    %esp,%ebp
 800032d:	83 ec 04             	sub    $0x4,%esp
 8000330:	8b 45 08             	mov    0x8(%ebp),%eax
 8000333:	88 45 fc             	mov    %al,-0x4(%ebp)
 8000336:	80 7d fc 2f          	cmpb   $0x2f,-0x4(%ebp)
 800033a:	7e 0d                	jle    8000349 <isdigit+0x1f>
 800033c:	80 7d fc 39          	cmpb   $0x39,-0x4(%ebp)
 8000340:	7f 07                	jg     8000349 <isdigit+0x1f>
 8000342:	b8 01 00 00 00       	mov    $0x1,%eax
 8000347:	eb 05                	jmp    800034e <isdigit+0x24>
 8000349:	b8 00 00 00 00       	mov    $0x0,%eax
 800034e:	c9                   	leave  
 800034f:	c3                   	ret    

08000350 <strcmp>:
 8000350:	55                   	push   %ebp
 8000351:	89 e5                	mov    %esp,%ebp
 8000353:	eb 08                	jmp    800035d <strcmp+0xd>
 8000355:	83 45 08 01          	addl   $0x1,0x8(%ebp)
 8000359:	83 45 0c 01          	addl   $0x1,0xc(%ebp)
 800035d:	8b 45 08             	mov    0x8(%ebp),%eax
 8000360:	0f b6 00             	movzbl (%eax),%eax
 8000363:	84 c0                	test   %al,%al
 8000365:	74 1a                	je     8000381 <strcmp+0x31>
 8000367:	8b 45 0c             	mov    0xc(%ebp),%eax
 800036a:	0f b6 00             	movzbl (%eax),%eax
 800036d:	84 c0                	test   %al,%al
 800036f:	74 10                	je     8000381 <strcmp+0x31>
 8000371:	8b 45 08             	mov    0x8(%ebp),%eax
 8000374:	0f b6 10             	movzbl (%eax),%edx
 8000377:	8b 45 0c             	mov    0xc(%ebp),%eax
 800037a:	0f b6 00             	movzbl (%eax),%eax
 800037d:	38 c2                	cmp    %al,%dl
 800037f:	74 d4                	je     8000355 <strcmp+0x5>
 8000381:	8b 45 08             	mov    0x8(%ebp),%eax
 8000384:	0f b6 00             	movzbl (%eax),%eax
 8000387:	89 c2                	mov    %eax,%edx
 8000389:	8b 45 0c             	mov    0xc(%ebp),%eax
 800038c:	0f b6 00             	movzbl (%eax),%eax
 800038f:	29 c2                	sub    %eax,%edx
 8000391:	89 d0                	mov    %edx,%eax
 8000393:	5d                   	pop    %ebp
 8000394:	c3                   	ret    

08000395 <strncmp>:
 8000395:	55                   	push   %ebp
 8000396:	89 e5                	mov    %esp,%ebp
 8000398:	eb 15                	jmp    80003af <strncmp+0x1a>
 800039a:	83 45 08 01          	addl   $0x1,0x8(%ebp)
 800039e:	83 45 0c 01          	addl   $0x1,0xc(%ebp)
 80003a2:	8b 45 10             	mov    0x10(%ebp),%eax
 80003a5:	8d 50 ff             	lea    -0x1(%eax),%edx
 80003a8:	89 55 10             	mov    %edx,0x10(%ebp)
 80003ab:	85 c0                	test   %eax,%eax
 80003ad:	74 26                	je     80003d5 <strncmp+0x40>
 80003af:	8b 45 08             	mov    0x8(%ebp),%eax
 80003b2:	0f b6 00             	movzbl (%eax),%eax
 80003b5:	84 c0                	test   %al,%al
 80003b7:	74 1d                	je     80003d6 <strncmp+0x41>
 80003b9:	8b 45 0c             	mov    0xc(%ebp),%eax
 80003bc:	0f b6 00             	movzbl (%eax),%eax
 80003bf:	84 c0                	test   %al,%al
 80003c1:	74 13                	je     80003d6 <strncmp+0x41>
 80003c3:	8b 45 08             	mov    0x8(%ebp),%eax
 80003c6:	0f b6 10             	movzbl (%eax),%edx
 80003c9:	8b 45 0c             	mov    0xc(%ebp),%eax
 80003cc:	0f b6 00             	movzbl (%eax),%eax
 80003cf:	38 c2                	cmp    %al,%dl
 80003d1:	74 c7                	je     800039a <strncmp+0x5>
 80003d3:	eb 01                	jmp    80003d6 <strncmp+0x41>
 80003d5:	90                   	nop
 80003d6:	8b 45 08             	mov    0x8(%ebp),%eax
 80003d9:	0f b6 00             	movzbl (%eax),%eax
 80003dc:	89 c2                	mov    %eax,%edx
 80003de:	8b 45 0c             	mov    0xc(%ebp),%eax
 80003e1:	0f b6 00             	movzbl (%eax),%eax
 80003e4:	29 c2                	sub    %eax,%edx
 80003e6:	89 d0                	mov    %edx,%eax
 80003e8:	5d                   	pop    %ebp
 80003e9:	c3                   	ret    

080003ea <memcmp>:
 80003ea:	55                   	push   %ebp
 80003eb:	89 e5                	mov    %esp,%ebp
 80003ed:	eb 19                	jmp    8000408 <memcmp+0x1e>
 80003ef:	83 45 08 01          	addl   $0x1,0x8(%ebp)
 80003f3:	83 45 0c 01          	addl   $0x1,0xc(%ebp)
 80003f7:	83 6d 10 01          	subl   $0x1,0x10(%ebp)
 80003fb:	83 7d 10 00          	cmpl   $0x0,0x10(%ebp)
 80003ff:	75 07                	jne    8000408 <memcmp+0x1e>
 8000401:	b8 00 00 00 00       	mov    $0x0,%eax
 8000406:	eb 15                	jmp    800041d <memcmp+0x33>
 8000408:	8b 45 08             	mov    0x8(%ebp),%eax
 800040b:	0f b6 10             	movzbl (%eax),%edx
 800040e:	8b 45 0c             	mov    0xc(%ebp),%eax
 8000411:	0f b6 00             	movzbl (%eax),%eax
 8000414:	38 c2                	cmp    %al,%dl
 8000416:	74 d7                	je     80003ef <memcmp+0x5>
 8000418:	b8 01 00 00 00       	mov    $0x1,%eax
 800041d:	5d                   	pop    %ebp
 800041e:	c3                   	ret    

0800041f <strcpy>:
 800041f:	55                   	push   %ebp
 8000420:	89 e5                	mov    %esp,%ebp
 8000422:	eb 17                	jmp    800043b <strcpy+0x1c>
 8000424:	8b 45 08             	mov    0x8(%ebp),%eax
 8000427:	8d 50 01             	lea    0x1(%eax),%edx
 800042a:	89 55 08             	mov    %edx,0x8(%ebp)
 800042d:	8b 55 0c             	mov    0xc(%ebp),%edx
 8000430:	8d 4a 01             	lea    0x1(%edx),%ecx
 8000433:	89 4d 0c             	mov    %ecx,0xc(%ebp)
 8000436:	0f b6 12             	movzbl (%edx),%edx
 8000439:	88 10                	mov    %dl,(%eax)
 800043b:	8b 45 0c             	mov    0xc(%ebp),%eax
 800043e:	0f b6 00             	movzbl (%eax),%eax
 8000441:	84 c0                	test   %al,%al
 8000443:	75 df                	jne    8000424 <strcpy+0x5>
 8000445:	90                   	nop
 8000446:	5d                   	pop    %ebp
 8000447:	c3                   	ret    

08000448 <strncpy>:
 8000448:	55                   	push   %ebp
 8000449:	89 e5                	mov    %esp,%ebp
 800044b:	eb 17                	jmp    8000464 <strncpy+0x1c>
 800044d:	8b 45 08             	mov    0x8(%ebp),%eax
 8000450:	8d 50 01             	lea    0x1(%eax),%edx
 8000453:	89 55 08             	mov    %edx,0x8(%ebp)
 8000456:	8b 55 0c             	mov    0xc(%ebp),%edx
 8000459:	8d 4a 01             	lea    0x1(%edx),%ecx
 800045c:	89 4d 0c             	mov    %ecx,0xc(%ebp)
 800045f:	0f b6 12             	movzbl (%edx),%edx
 8000462:	88 10                	mov    %dl,(%eax)
 8000464:	8b 45 0c             	mov    0xc(%ebp),%eax
 8000467:	0f b6 00             	movzbl (%eax),%eax
 800046a:	84 c0                	test   %al,%al
 800046c:	74 0d                	je     800047b <strncpy+0x33>
 800046e:	8b 45 10             	mov    0x10(%ebp),%eax
 8000471:	8d 50 ff             	lea    -0x1(%eax),%edx
 8000474:	89 55 10             	mov    %edx,0x10(%ebp)
 8000477:	85 c0                	test   %eax,%eax
 8000479:	75 d2                	jne    800044d <strncpy+0x5>
 800047b:	90                   	nop
 800047c:	5d                   	pop    %ebp
 800047d:	c3                   	ret    

0800047e <strlen>:
 800047e:	55                   	push   %ebp
 800047f:	89 e5                	mov    %esp,%ebp
 8000481:	83 ec 10             	sub    $0x10,%esp
 8000484:	c7 45 fc 00 00 00 00 	movl   $0x0,-0x4(%ebp)
 800048b:	eb 04                	jmp    8000491 <strlen+0x13>
 800048d:	83 45 fc 01          	addl   $0x1,-0x4(%ebp)
 8000491:	8b 45 08             	mov    0x8(%ebp),%eax
 8000494:	8d 50 01             	lea    0x1(%eax),%edx
 8000497:	89 55 08             	mov    %edx,0x8(%ebp)
 800049a:	0f b6 00             	movzbl (%eax),%eax
 800049d:	84 c0                	test   %al,%al
 800049f:	75 ec                	jne    800048d <strlen+0xf>
 80004a1:	8b 45 fc             	mov    -0x4(%ebp),%eax
 80004a4:	c9                   	leave  
 80004a5:	c3                   	ret    

080004a6 <memcpy>:
 80004a6:	55                   	push   %ebp
 80004a7:	89 e5                	mov    %esp,%ebp
 80004a9:	83 ec 10             	sub    $0x10,%esp
 80004ac:	8b 45 08             	mov    0x8(%ebp),%eax
 80004af:	89 45 fc             	mov    %eax,-0x4(%ebp)
 80004b2:	eb 17                	jmp    80004cb <memcpy+0x25>
 80004b4:	8b 45 08             	mov    0x8(%ebp),%eax
 80004b7:	8d 50 01             	lea    0x1(%eax),%edx
 80004ba:	89 55 08             	mov    %edx,0x8(%ebp)
 80004bd:	8b 55 0c             	mov    0xc(%ebp),%edx
 80004c0:	8d 4a 01             	lea    0x1(%edx),%ecx
 80004c3:	89 4d 0c             	mov    %ecx,0xc(%ebp)
 80004c6:	0f b6 12             	movzbl (%edx),%edx
 80004c9:	88 10                	mov    %dl,(%eax)
 80004cb:	8b 45 10             	mov    0x10(%ebp),%eax
 80004ce:	8d 50 ff             	lea    -0x1(%eax),%edx
 80004d1:	89 55 10             	mov    %edx,0x10(%ebp)
 80004d4:	85 c0                	test   %eax,%eax
 80004d6:	75 dc                	jne    80004b4 <memcpy+0xe>
 80004d8:	8b 45 fc             	mov    -0x4(%ebp),%eax
 80004db:	c9                   	leave  
 80004dc:	c3                   	ret    

080004dd <memset>:
 80004dd:	55                   	push   %ebp
 80004de:	89 e5                	mov    %esp,%ebp
 80004e0:	83 ec 14             	sub    $0x14,%esp
 80004e3:	8b 45 0c             	mov    0xc(%ebp),%eax
 80004e6:	88 45 ec             	mov    %al,-0x14(%ebp)
 80004e9:	8b 45 08             	mov    0x8(%ebp),%eax
 80004ec:	89 45 fc             	mov    %eax,-0x4(%ebp)
 80004ef:	eb 0f                	jmp    8000500 <memset+0x23>
 80004f1:	8b 45 08             	mov    0x8(%ebp),%eax
 80004f4:	8d 50 01             	lea    0x1(%eax),%edx
 80004f7:	89 55 08             	mov    %edx,0x8(%ebp)
 80004fa:	0f b6 55 ec          	movzbl -0x14(%ebp),%edx
 80004fe:	88 10                	mov    %dl,(%eax)
 8000500:	8b 45 10             	mov    0x10(%ebp),%eax
 8000503:	8d 50 ff             	lea    -0x1(%eax),%edx
 8000506:	89 55 10             	mov    %edx,0x10(%ebp)
 8000509:	85 c0                	test   %eax,%eax
 800050b:	75 e4                	jne    80004f1 <memset+0x14>
 800050d:	8b 45 fc             	mov    -0x4(%ebp),%eax
 8000510:	c9                   	leave  
 8000511:	c3                   	ret    

08000512 <strcat>:
 8000512:	55                   	push   %ebp
 8000513:	89 e5                	mov    %esp,%ebp
 8000515:	83 ec 08             	sub    $0x8,%esp
 8000518:	ff 75 0c             	pushl  0xc(%ebp)
 800051b:	e8 5e ff ff ff       	call   800047e <strlen>
 8000520:	83 c4 04             	add    $0x4,%esp
 8000523:	83 ec 04             	sub    $0x4,%esp
 8000526:	50                   	push   %eax
 8000527:	ff 75 0c             	pushl  0xc(%ebp)
 800052a:	ff 75 08             	pushl  0x8(%ebp)
 800052d:	e8 05 00 00 00       	call   8000537 <strncat>
 8000532:	83 c4 10             	add    $0x10,%esp
 8000535:	c9                   	leave  
 8000536:	c3                   	ret    

08000537 <strncat>:
 8000537:	55                   	push   %ebp
 8000538:	89 e5                	mov    %esp,%ebp
 800053a:	53                   	push   %ebx
 800053b:	8b 5d 10             	mov    0x10(%ebp),%ebx
 800053e:	ff 75 08             	pushl  0x8(%ebp)
 8000541:	e8 38 ff ff ff       	call   800047e <strlen>
 8000546:	83 c4 04             	add    $0x4,%esp
 8000549:	89 c2                	mov    %eax,%edx
 800054b:	8b 45 08             	mov    0x8(%ebp),%eax
 800054e:	01 d0                	add    %edx,%eax
 8000550:	53                   	push   %ebx
 8000551:	ff 75 0c             	pushl  0xc(%ebp)
 8000554:	50                   	push   %eax
 8000555:	e8 4c ff ff ff       	call   80004a6 <memcpy>
 800055a:	83 c4 0c             	add    $0xc,%esp
 800055d:	8b 45 08             	mov    0x8(%ebp),%eax
 8000560:	8b 5d fc             	mov    -0x4(%ebp),%ebx
 8000563:	c9                   	leave  
 8000564:	c3                   	ret    

08000565 <strcspn>:
 8000565:	55                   	push   %ebp
 8000566:	89 e5                	mov    %esp,%ebp
 8000568:	83 ec 10             	sub    $0x10,%esp
 800056b:	c7 45 fc 00 00 00 00 	movl   $0x0,-0x4(%ebp)
 8000572:	eb 38                	jmp    80005ac <strcspn+0x47>
 8000574:	8b 45 0c             	mov    0xc(%ebp),%eax
 8000577:	89 45 f8             	mov    %eax,-0x8(%ebp)
 800057a:	eb 04                	jmp    8000580 <strcspn+0x1b>
 800057c:	83 45 f8 01          	addl   $0x1,-0x8(%ebp)
 8000580:	8b 45 f8             	mov    -0x8(%ebp),%eax
 8000583:	0f b6 00             	movzbl (%eax),%eax
 8000586:	84 c0                	test   %al,%al
 8000588:	74 10                	je     800059a <strcspn+0x35>
 800058a:	8b 45 f8             	mov    -0x8(%ebp),%eax
 800058d:	0f b6 10             	movzbl (%eax),%edx
 8000590:	8b 45 08             	mov    0x8(%ebp),%eax
 8000593:	0f b6 00             	movzbl (%eax),%eax
 8000596:	38 c2                	cmp    %al,%dl
 8000598:	75 e2                	jne    800057c <strcspn+0x17>
 800059a:	8b 45 f8             	mov    -0x8(%ebp),%eax
 800059d:	0f b6 00             	movzbl (%eax),%eax
 80005a0:	84 c0                	test   %al,%al
 80005a2:	74 14                	je     80005b8 <strcspn+0x53>
 80005a4:	83 45 08 01          	addl   $0x1,0x8(%ebp)
 80005a8:	83 45 fc 01          	addl   $0x1,-0x4(%ebp)
 80005ac:	8b 45 08             	mov    0x8(%ebp),%eax
 80005af:	0f b6 00             	movzbl (%eax),%eax
 80005b2:	84 c0                	test   %al,%al
 80005b4:	75 be                	jne    8000574 <strcspn+0xf>
 80005b6:	eb 01                	jmp    80005b9 <strcspn+0x54>
 80005b8:	90                   	nop
 80005b9:	8b 45 fc             	mov    -0x4(%ebp),%eax
 80005bc:	c9                   	leave  
 80005bd:	c3                   	ret    

080005be <strstr>:
 80005be:	55                   	push   %ebp
 80005bf:	89 e5                	mov    %esp,%ebp
 80005c1:	83 ec 10             	sub    $0x10,%esp
 80005c4:	ff 75 0c             	pushl  0xc(%ebp)
 80005c7:	e8 b2 fe ff ff       	call   800047e <strlen>
 80005cc:	83 c4 04             	add    $0x4,%esp
 80005cf:	89 45 f8             	mov    %eax,-0x8(%ebp)
 80005d2:	8b 45 0c             	mov    0xc(%ebp),%eax
 80005d5:	89 45 fc             	mov    %eax,-0x4(%ebp)
 80005d8:	eb 47                	jmp    8000621 <strstr+0x63>
 80005da:	8b 45 08             	mov    0x8(%ebp),%eax
 80005dd:	8d 50 01             	lea    0x1(%eax),%edx
 80005e0:	89 55 08             	mov    %edx,0x8(%ebp)
 80005e3:	0f b6 10             	movzbl (%eax),%edx
 80005e6:	8b 45 fc             	mov    -0x4(%ebp),%eax
 80005e9:	0f b6 00             	movzbl (%eax),%eax
 80005ec:	38 c2                	cmp    %al,%dl
 80005ee:	75 04                	jne    80005f4 <strstr+0x36>
 80005f0:	83 45 fc 01          	addl   $0x1,-0x4(%ebp)
 80005f4:	8b 45 fc             	mov    -0x4(%ebp),%eax
 80005f7:	0f b6 00             	movzbl (%eax),%eax
 80005fa:	84 c0                	test   %al,%al
 80005fc:	75 0e                	jne    800060c <strstr+0x4e>
 80005fe:	8b 45 f8             	mov    -0x8(%ebp),%eax
 8000601:	f7 d8                	neg    %eax
 8000603:	89 c2                	mov    %eax,%edx
 8000605:	8b 45 08             	mov    0x8(%ebp),%eax
 8000608:	01 d0                	add    %edx,%eax
 800060a:	eb 2e                	jmp    800063a <strstr+0x7c>
 800060c:	8b 55 fc             	mov    -0x4(%ebp),%edx
 800060f:	8b 45 0c             	mov    0xc(%ebp),%eax
 8000612:	29 c2                	sub    %eax,%edx
 8000614:	89 d0                	mov    %edx,%eax
 8000616:	3b 45 f8             	cmp    -0x8(%ebp),%eax
 8000619:	75 06                	jne    8000621 <strstr+0x63>
 800061b:	8b 45 0c             	mov    0xc(%ebp),%eax
 800061e:	89 45 fc             	mov    %eax,-0x4(%ebp)
 8000621:	8b 45 08             	mov    0x8(%ebp),%eax
 8000624:	0f b6 00             	movzbl (%eax),%eax
 8000627:	84 c0                	test   %al,%al
 8000629:	74 0a                	je     8000635 <strstr+0x77>
 800062b:	8b 45 fc             	mov    -0x4(%ebp),%eax
 800062e:	0f b6 00             	movzbl (%eax),%eax
 8000631:	84 c0                	test   %al,%al
 8000633:	75 a5                	jne    80005da <strstr+0x1c>
 8000635:	b8 00 00 00 00       	mov    $0x0,%eax
 800063a:	c9                   	leave  
 800063b:	c3                   	ret    

0800063c <strsplit>:
 800063c:	55                   	push   %ebp
 800063d:	89 e5                	mov    %esp,%ebp
 800063f:	83 ec 38             	sub    $0x38,%esp
 8000642:	8b 45 0c             	mov    0xc(%ebp),%eax
 8000645:	88 45 d4             	mov    %al,-0x2c(%ebp)
 8000648:	c7 45 f4 00 00 00 00 	movl   $0x0,-0xc(%ebp)
 800064f:	c7 45 f0 00 00 00 00 	movl   $0x0,-0x10(%ebp)
 8000656:	c7 45 ec 00 00 00 00 	movl   $0x0,-0x14(%ebp)
 800065d:	c7 45 e8 00 00 00 00 	movl   $0x0,-0x18(%ebp)
 8000664:	eb 13                	jmp    8000679 <strsplit+0x3d>
 8000666:	8b 45 08             	mov    0x8(%ebp),%eax
 8000669:	0f b6 00             	movzbl (%eax),%eax
 800066c:	3a 45 d4             	cmp    -0x2c(%ebp),%al
 800066f:	75 04                	jne    8000675 <strsplit+0x39>
 8000671:	83 45 f0 01          	addl   $0x1,-0x10(%ebp)
 8000675:	83 45 f4 01          	addl   $0x1,-0xc(%ebp)
 8000679:	8b 45 08             	mov    0x8(%ebp),%eax
 800067c:	8d 50 01             	lea    0x1(%eax),%edx
 800067f:	89 55 08             	mov    %edx,0x8(%ebp)
 8000682:	0f b6 00             	movzbl (%eax),%eax
 8000685:	84 c0                	test   %al,%al
 8000687:	75 dd                	jne    8000666 <strsplit+0x2a>
 8000689:	8b 45 f4             	mov    -0xc(%ebp),%eax
 800068c:	f7 d0                	not    %eax
 800068e:	01 45 08             	add    %eax,0x8(%ebp)
 8000691:	8b 45 f4             	mov    -0xc(%ebp),%eax
 8000694:	83 c0 01             	add    $0x1,%eax
 8000697:	c1 e0 02             	shl    $0x2,%eax
 800069a:	83 ec 0c             	sub    $0xc,%esp
 800069d:	50                   	push   %eax
 800069e:	e8 13 fa ff ff       	call   80000b6 <malloc>
 80006a3:	83 c4 10             	add    $0x10,%esp
 80006a6:	89 45 e4             	mov    %eax,-0x1c(%ebp)
 80006a9:	8b 45 e4             	mov    -0x1c(%ebp),%eax
 80006ac:	89 45 e0             	mov    %eax,-0x20(%ebp)
 80006af:	c7 45 ec 00 00 00 00 	movl   $0x0,-0x14(%ebp)
 80006b6:	eb 70                	jmp    8000728 <strsplit+0xec>
 80006b8:	c7 45 e8 00 00 00 00 	movl   $0x0,-0x18(%ebp)
 80006bf:	eb 04                	jmp    80006c5 <strsplit+0x89>
 80006c1:	83 45 e8 01          	addl   $0x1,-0x18(%ebp)
 80006c5:	8b 55 e8             	mov    -0x18(%ebp),%edx
 80006c8:	8b 45 08             	mov    0x8(%ebp),%eax
 80006cb:	01 d0                	add    %edx,%eax
 80006cd:	0f b6 00             	movzbl (%eax),%eax
 80006d0:	3a 45 d4             	cmp    -0x2c(%ebp),%al
 80006d3:	75 ec                	jne    80006c1 <strsplit+0x85>
 80006d5:	83 45 e8 01          	addl   $0x1,-0x18(%ebp)
 80006d9:	8b 45 e8             	mov    -0x18(%ebp),%eax
 80006dc:	83 ec 0c             	sub    $0xc,%esp
 80006df:	50                   	push   %eax
 80006e0:	e8 d1 f9 ff ff       	call   80000b6 <malloc>
 80006e5:	83 c4 10             	add    $0x10,%esp
 80006e8:	89 c2                	mov    %eax,%edx
 80006ea:	8b 45 e4             	mov    -0x1c(%ebp),%eax
 80006ed:	89 10                	mov    %edx,(%eax)
 80006ef:	8b 45 e8             	mov    -0x18(%ebp),%eax
 80006f2:	8d 50 ff             	lea    -0x1(%eax),%edx
 80006f5:	8b 45 e4             	mov    -0x1c(%ebp),%eax
 80006f8:	8b 00                	mov    (%eax),%eax
 80006fa:	83 ec 04             	sub    $0x4,%esp
 80006fd:	52                   	push   %edx
 80006fe:	ff 75 08             	pushl  0x8(%ebp)
 8000701:	50                   	push   %eax
 8000702:	e8 9f fd ff ff       	call   80004a6 <memcpy>
 8000707:	83 c4 10             	add    $0x10,%esp
 800070a:	8b 45 e4             	mov    -0x1c(%ebp),%eax
 800070d:	8b 00                	mov    (%eax),%eax
 800070f:	8b 55 e8             	mov    -0x18(%ebp),%edx
 8000712:	83 ea 01             	sub    $0x1,%edx
 8000715:	01 d0                	add    %edx,%eax
 8000717:	c6 00 00             	movb   $0x0,(%eax)
 800071a:	8b 45 e8             	mov    -0x18(%ebp),%eax
 800071d:	01 45 08             	add    %eax,0x8(%ebp)
 8000720:	83 45 e4 04          	addl   $0x4,-0x1c(%ebp)
 8000724:	83 45 ec 01          	addl   $0x1,-0x14(%ebp)
 8000728:	8b 45 f0             	mov    -0x10(%ebp),%eax
 800072b:	83 c0 01             	add    $0x1,%eax
 800072e:	3b 45 ec             	cmp    -0x14(%ebp),%eax
 8000731:	7f 85                	jg     80006b8 <strsplit+0x7c>
 8000733:	8b 45 e4             	mov    -0x1c(%ebp),%eax
 8000736:	c7 00 00 00 00 00    	movl   $0x0,(%eax)
 800073c:	8b 45 e0             	mov    -0x20(%ebp),%eax
 800073f:	c9                   	leave  
 8000740:	c3                   	ret    

08000741 <screen_print_int>:
 8000741:	55                   	push   %ebp
 8000742:	89 e5                	mov    %esp,%ebp
 8000744:	83 ec 78             	sub    $0x78,%esp
 8000747:	ff 75 0c             	pushl  0xc(%ebp)
 800074a:	8d 45 94             	lea    -0x6c(%ebp),%eax
 800074d:	50                   	push   %eax
 800074e:	ff 75 08             	pushl  0x8(%ebp)
 8000751:	e8 95 fa ff ff       	call   80001eb <itoa>
 8000756:	83 c4 0c             	add    $0xc,%esp
 8000759:	83 ec 0c             	sub    $0xc,%esp
 800075c:	8d 45 94             	lea    -0x6c(%ebp),%eax
 800075f:	50                   	push   %eax
 8000760:	e8 01 f9 ff ff       	call   8000066 <puts>
 8000765:	83 c4 10             	add    $0x10,%esp
 8000768:	90                   	nop
 8000769:	c9                   	leave  
 800076a:	c3                   	ret    

0800076b <hexDump>:
 800076b:	55                   	push   %ebp
 800076c:	89 e5                	mov    %esp,%ebp
 800076e:	83 ec 28             	sub    $0x28,%esp
 8000771:	8b 45 0c             	mov    0xc(%ebp),%eax
 8000774:	89 45 f0             	mov    %eax,-0x10(%ebp)
 8000777:	83 7d 08 00          	cmpl   $0x0,0x8(%ebp)
 800077b:	74 0e                	je     800078b <hexDump+0x20>
 800077d:	83 ec 0c             	sub    $0xc,%esp
 8000780:	ff 75 08             	pushl  0x8(%ebp)
 8000783:	e8 de f8 ff ff       	call   8000066 <puts>
 8000788:	83 c4 10             	add    $0x10,%esp
 800078b:	83 ec 0c             	sub    $0xc,%esp
 800078e:	68 24 11 00 08       	push   $0x8001124
 8000793:	e8 ce f8 ff ff       	call   8000066 <puts>
 8000798:	83 c4 10             	add    $0x10,%esp
 800079b:	83 7d 10 00          	cmpl   $0x0,0x10(%ebp)
 800079f:	75 15                	jne    80007b6 <hexDump+0x4b>
 80007a1:	83 ec 0c             	sub    $0xc,%esp
 80007a4:	68 26 11 00 08       	push   $0x8001126
 80007a9:	e8 b8 f8 ff ff       	call   8000066 <puts>
 80007ae:	83 c4 10             	add    $0x10,%esp
 80007b1:	e9 69 01 00 00       	jmp    800091f <hexDump+0x1b4>
 80007b6:	83 7d 10 00          	cmpl   $0x0,0x10(%ebp)
 80007ba:	79 15                	jns    80007d1 <hexDump+0x66>
 80007bc:	83 ec 0c             	sub    $0xc,%esp
 80007bf:	68 35 11 00 08       	push   $0x8001135
 80007c4:	e8 9d f8 ff ff       	call   8000066 <puts>
 80007c9:	83 c4 10             	add    $0x10,%esp
 80007cc:	e9 4e 01 00 00       	jmp    800091f <hexDump+0x1b4>
 80007d1:	c7 45 f4 00 00 00 00 	movl   $0x0,-0xc(%ebp)
 80007d8:	e9 e7 00 00 00       	jmp    80008c4 <hexDump+0x159>
 80007dd:	8b 45 f4             	mov    -0xc(%ebp),%eax
 80007e0:	83 e0 0f             	and    $0xf,%eax
 80007e3:	85 c0                	test   %eax,%eax
 80007e5:	75 45                	jne    800082c <hexDump+0xc1>
 80007e7:	83 7d f4 00          	cmpl   $0x0,-0xc(%ebp)
 80007eb:	74 0f                	je     80007fc <hexDump+0x91>
 80007ed:	83 ec 0c             	sub    $0xc,%esp
 80007f0:	8d 45 df             	lea    -0x21(%ebp),%eax
 80007f3:	50                   	push   %eax
 80007f4:	e8 6d f8 ff ff       	call   8000066 <puts>
 80007f9:	83 c4 10             	add    $0x10,%esp
 80007fc:	83 ec 0c             	sub    $0xc,%esp
 80007ff:	68 48 11 00 08       	push   $0x8001148
 8000804:	e8 5d f8 ff ff       	call   8000066 <puts>
 8000809:	83 c4 10             	add    $0x10,%esp
 800080c:	83 ec 08             	sub    $0x8,%esp
 800080f:	6a 10                	push   $0x10
 8000811:	ff 75 f4             	pushl  -0xc(%ebp)
 8000814:	e8 28 ff ff ff       	call   8000741 <screen_print_int>
 8000819:	83 c4 10             	add    $0x10,%esp
 800081c:	83 ec 0c             	sub    $0xc,%esp
 800081f:	68 4a 11 00 08       	push   $0x800114a
 8000824:	e8 3d f8 ff ff       	call   8000066 <puts>
 8000829:	83 c4 10             	add    $0x10,%esp
 800082c:	8b 55 f4             	mov    -0xc(%ebp),%edx
 800082f:	8b 45 f0             	mov    -0x10(%ebp),%eax
 8000832:	01 d0                	add    %edx,%eax
 8000834:	0f b6 00             	movzbl (%eax),%eax
 8000837:	0f b6 c0             	movzbl %al,%eax
 800083a:	83 ec 08             	sub    $0x8,%esp
 800083d:	6a 10                	push   $0x10
 800083f:	50                   	push   %eax
 8000840:	e8 fc fe ff ff       	call   8000741 <screen_print_int>
 8000845:	83 c4 10             	add    $0x10,%esp
 8000848:	83 ec 0c             	sub    $0xc,%esp
 800084b:	68 4d 11 00 08       	push   $0x800114d
 8000850:	e8 11 f8 ff ff       	call   8000066 <puts>
 8000855:	83 c4 10             	add    $0x10,%esp
 8000858:	8b 55 f4             	mov    -0xc(%ebp),%edx
 800085b:	8b 45 f0             	mov    -0x10(%ebp),%eax
 800085e:	01 d0                	add    %edx,%eax
 8000860:	0f b6 00             	movzbl (%eax),%eax
 8000863:	3c 1f                	cmp    $0x1f,%al
 8000865:	76 0f                	jbe    8000876 <hexDump+0x10b>
 8000867:	8b 55 f4             	mov    -0xc(%ebp),%edx
 800086a:	8b 45 f0             	mov    -0x10(%ebp),%eax
 800086d:	01 d0                	add    %edx,%eax
 800086f:	0f b6 00             	movzbl (%eax),%eax
 8000872:	3c 7e                	cmp    $0x7e,%al
 8000874:	76 15                	jbe    800088b <hexDump+0x120>
 8000876:	8b 45 f4             	mov    -0xc(%ebp),%eax
 8000879:	99                   	cltd   
 800087a:	c1 ea 1c             	shr    $0x1c,%edx
 800087d:	01 d0                	add    %edx,%eax
 800087f:	83 e0 0f             	and    $0xf,%eax
 8000882:	29 d0                	sub    %edx,%eax
 8000884:	c6 44 05 df 2e       	movb   $0x2e,-0x21(%ebp,%eax,1)
 8000889:	eb 1f                	jmp    80008aa <hexDump+0x13f>
 800088b:	8b 45 f4             	mov    -0xc(%ebp),%eax
 800088e:	99                   	cltd   
 800088f:	c1 ea 1c             	shr    $0x1c,%edx
 8000892:	01 d0                	add    %edx,%eax
 8000894:	83 e0 0f             	and    $0xf,%eax
 8000897:	29 d0                	sub    %edx,%eax
 8000899:	89 c1                	mov    %eax,%ecx
 800089b:	8b 55 f4             	mov    -0xc(%ebp),%edx
 800089e:	8b 45 f0             	mov    -0x10(%ebp),%eax
 80008a1:	01 d0                	add    %edx,%eax
 80008a3:	0f b6 00             	movzbl (%eax),%eax
 80008a6:	88 44 0d df          	mov    %al,-0x21(%ebp,%ecx,1)
 80008aa:	8b 45 f4             	mov    -0xc(%ebp),%eax
 80008ad:	99                   	cltd   
 80008ae:	c1 ea 1c             	shr    $0x1c,%edx
 80008b1:	01 d0                	add    %edx,%eax
 80008b3:	83 e0 0f             	and    $0xf,%eax
 80008b6:	29 d0                	sub    %edx,%eax
 80008b8:	83 c0 01             	add    $0x1,%eax
 80008bb:	c6 44 05 df 00       	movb   $0x0,-0x21(%ebp,%eax,1)
 80008c0:	83 45 f4 01          	addl   $0x1,-0xc(%ebp)
 80008c4:	8b 45 f4             	mov    -0xc(%ebp),%eax
 80008c7:	3b 45 10             	cmp    0x10(%ebp),%eax
 80008ca:	0f 8c 0d ff ff ff    	jl     80007dd <hexDump+0x72>
 80008d0:	eb 14                	jmp    80008e6 <hexDump+0x17b>
 80008d2:	83 ec 0c             	sub    $0xc,%esp
 80008d5:	68 4f 11 00 08       	push   $0x800114f
 80008da:	e8 87 f7 ff ff       	call   8000066 <puts>
 80008df:	83 c4 10             	add    $0x10,%esp
 80008e2:	83 45 f4 01          	addl   $0x1,-0xc(%ebp)
 80008e6:	8b 45 f4             	mov    -0xc(%ebp),%eax
 80008e9:	83 e0 0f             	and    $0xf,%eax
 80008ec:	85 c0                	test   %eax,%eax
 80008ee:	75 e2                	jne    80008d2 <hexDump+0x167>
 80008f0:	83 ec 0c             	sub    $0xc,%esp
 80008f3:	68 53 11 00 08       	push   $0x8001153
 80008f8:	e8 69 f7 ff ff       	call   8000066 <puts>
 80008fd:	83 c4 10             	add    $0x10,%esp
 8000900:	83 ec 0c             	sub    $0xc,%esp
 8000903:	8d 45 df             	lea    -0x21(%ebp),%eax
 8000906:	50                   	push   %eax
 8000907:	e8 5a f7 ff ff       	call   8000066 <puts>
 800090c:	83 c4 10             	add    $0x10,%esp
 800090f:	83 ec 0c             	sub    $0xc,%esp
 8000912:	68 48 11 00 08       	push   $0x8001148
 8000917:	e8 4a f7 ff ff       	call   8000066 <puts>
 800091c:	83 c4 10             	add    $0x10,%esp
 800091f:	c9                   	leave  
 8000920:	c3                   	ret    

08000921 <main>:
 8000921:	8d 4c 24 04          	lea    0x4(%esp),%ecx
 8000925:	83 e4 f0             	and    $0xfffffff0,%esp
 8000928:	ff 71 fc             	pushl  -0x4(%ecx)
 800092b:	55                   	push   %ebp
 800092c:	89 e5                	mov    %esp,%ebp
 800092e:	53                   	push   %ebx
 800092f:	51                   	push   %ecx
 8000930:	89 cb                	mov    %ecx,%ebx
 8000932:	83 3b 01             	cmpl   $0x1,(%ebx)
 8000935:	7e 68                	jle    800099f <main+0x7e>
 8000937:	8b 43 04             	mov    0x4(%ebx),%eax
 800093a:	83 c0 04             	add    $0x4,%eax
 800093d:	8b 00                	mov    (%eax),%eax
 800093f:	83 ec 08             	sub    $0x8,%esp
 8000942:	68 56 11 00 08       	push   $0x8001156
 8000947:	50                   	push   %eax
 8000948:	e8 03 fa ff ff       	call   8000350 <strcmp>
 800094d:	83 c4 10             	add    $0x10,%esp
 8000950:	84 c0                	test   %al,%al
 8000952:	75 29                	jne    800097d <main+0x5c>
 8000954:	83 3b 02             	cmpl   $0x2,(%ebx)
 8000957:	7e 24                	jle    800097d <main+0x5c>
 8000959:	8b 43 04             	mov    0x4(%ebx),%eax
 800095c:	83 c0 08             	add    $0x8,%eax
 800095f:	8b 00                	mov    (%eax),%eax
 8000961:	83 ec 0c             	sub    $0xc,%esp
 8000964:	50                   	push   %eax
 8000965:	e8 60 f8 ff ff       	call   80001ca <path_to_inode>
 800096a:	83 c4 10             	add    $0x10,%esp
 800096d:	83 ec 08             	sub    $0x8,%esp
 8000970:	6a 00                	push   $0x0
 8000972:	50                   	push   %eax
 8000973:	e8 58 01 00 00       	call   8000ad0 <print_filesystem_r>
 8000978:	83 c4 10             	add    $0x10,%esp
 800097b:	eb 23                	jmp    80009a0 <main+0x7f>
 800097d:	8b 43 04             	mov    0x4(%ebx),%eax
 8000980:	83 c0 04             	add    $0x4,%eax
 8000983:	8b 00                	mov    (%eax),%eax
 8000985:	83 ec 0c             	sub    $0xc,%esp
 8000988:	50                   	push   %eax
 8000989:	e8 3c f8 ff ff       	call   80001ca <path_to_inode>
 800098e:	83 c4 10             	add    $0x10,%esp
 8000991:	83 ec 0c             	sub    $0xc,%esp
 8000994:	50                   	push   %eax
 8000995:	e8 10 00 00 00       	call   80009aa <print_filesystem>
 800099a:	83 c4 10             	add    $0x10,%esp
 800099d:	eb 01                	jmp    80009a0 <main+0x7f>
 800099f:	90                   	nop
 80009a0:	8d 65 f8             	lea    -0x8(%ebp),%esp
 80009a3:	59                   	pop    %ecx
 80009a4:	5b                   	pop    %ebx
 80009a5:	5d                   	pop    %ebp
 80009a6:	8d 61 fc             	lea    -0x4(%ecx),%esp
 80009a9:	c3                   	ret    

080009aa <print_filesystem>:
 80009aa:	55                   	push   %ebp
 80009ab:	89 e5                	mov    %esp,%ebp
 80009ad:	83 ec 18             	sub    $0x18,%esp
 80009b0:	83 ec 0c             	sub    $0xc,%esp
 80009b3:	68 80 00 00 00       	push   $0x80
 80009b8:	e8 f9 f6 ff ff       	call   80000b6 <malloc>
 80009bd:	83 c4 10             	add    $0x10,%esp
 80009c0:	89 45 ec             	mov    %eax,-0x14(%ebp)
 80009c3:	83 ec 0c             	sub    $0xc,%esp
 80009c6:	6a 09                	push   $0x9
 80009c8:	e8 e9 f6 ff ff       	call   80000b6 <malloc>
 80009cd:	83 c4 10             	add    $0x10,%esp
 80009d0:	89 45 e8             	mov    %eax,-0x18(%ebp)
 80009d3:	8b 45 e8             	mov    -0x18(%ebp),%eax
 80009d6:	89 45 f4             	mov    %eax,-0xc(%ebp)
 80009d9:	83 ec 08             	sub    $0x8,%esp
 80009dc:	ff 75 e8             	pushl  -0x18(%ebp)
 80009df:	ff 75 08             	pushl  0x8(%ebp)
 80009e2:	e8 9f f7 ff ff       	call   8000186 <load_directory_structure>
 80009e7:	83 c4 10             	add    $0x10,%esp
 80009ea:	8b 45 f4             	mov    -0xc(%ebp),%eax
 80009ed:	8b 00                	mov    (%eax),%eax
 80009ef:	83 ec 08             	sub    $0x8,%esp
 80009f2:	ff 75 ec             	pushl  -0x14(%ebp)
 80009f5:	50                   	push   %eax
 80009f6:	e8 77 f7 ff ff       	call   8000172 <load_inode>
 80009fb:	83 c4 10             	add    $0x10,%esp
 80009fe:	8b 45 f4             	mov    -0xc(%ebp),%eax
 8000a01:	8b 00                	mov    (%eax),%eax
 8000a03:	83 ec 08             	sub    $0x8,%esp
 8000a06:	6a 0a                	push   $0xa
 8000a08:	50                   	push   %eax
 8000a09:	e8 33 fd ff ff       	call   8000741 <screen_print_int>
 8000a0e:	83 c4 10             	add    $0x10,%esp
 8000a11:	83 ec 0c             	sub    $0xc,%esp
 8000a14:	68 59 11 00 08       	push   $0x8001159
 8000a19:	e8 48 f6 ff ff       	call   8000066 <puts>
 8000a1e:	83 c4 10             	add    $0x10,%esp
 8000a21:	8b 45 ec             	mov    -0x14(%ebp),%eax
 8000a24:	8b 40 04             	mov    0x4(%eax),%eax
 8000a27:	83 ec 08             	sub    $0x8,%esp
 8000a2a:	6a 0a                	push   $0xa
 8000a2c:	50                   	push   %eax
 8000a2d:	e8 0f fd ff ff       	call   8000741 <screen_print_int>
 8000a32:	83 c4 10             	add    $0x10,%esp
 8000a35:	83 ec 0c             	sub    $0xc,%esp
 8000a38:	68 5b 11 00 08       	push   $0x800115b
 8000a3d:	e8 24 f6 ff ff       	call   8000066 <puts>
 8000a42:	83 c4 10             	add    $0x10,%esp
 8000a45:	c7 45 f0 00 00 00 00 	movl   $0x0,-0x10(%ebp)
 8000a4c:	eb 21                	jmp    8000a6f <print_filesystem+0xc5>
 8000a4e:	8b 45 f4             	mov    -0xc(%ebp),%eax
 8000a51:	8d 50 08             	lea    0x8(%eax),%edx
 8000a54:	8b 45 f0             	mov    -0x10(%ebp),%eax
 8000a57:	01 d0                	add    %edx,%eax
 8000a59:	0f b6 00             	movzbl (%eax),%eax
 8000a5c:	0f be c0             	movsbl %al,%eax
 8000a5f:	83 ec 0c             	sub    $0xc,%esp
 8000a62:	50                   	push   %eax
 8000a63:	e8 ef f5 ff ff       	call   8000057 <putc>
 8000a68:	83 c4 10             	add    $0x10,%esp
 8000a6b:	83 45 f0 01          	addl   $0x1,-0x10(%ebp)
 8000a6f:	8b 45 f4             	mov    -0xc(%ebp),%eax
 8000a72:	0f b7 40 06          	movzwl 0x6(%eax),%eax
 8000a76:	0f b7 c0             	movzwl %ax,%eax
 8000a79:	3b 45 f0             	cmp    -0x10(%ebp),%eax
 8000a7c:	77 d0                	ja     8000a4e <print_filesystem+0xa4>
 8000a7e:	83 ec 0c             	sub    $0xc,%esp
 8000a81:	68 5e 11 00 08       	push   $0x800115e
 8000a86:	e8 db f5 ff ff       	call   8000066 <puts>
 8000a8b:	83 c4 10             	add    $0x10,%esp
 8000a8e:	8b 45 f4             	mov    -0xc(%ebp),%eax
 8000a91:	0f b7 40 04          	movzwl 0x4(%eax),%eax
 8000a95:	0f b7 d0             	movzwl %ax,%edx
 8000a98:	8b 45 f4             	mov    -0xc(%ebp),%eax
 8000a9b:	01 d0                	add    %edx,%eax
 8000a9d:	89 45 f4             	mov    %eax,-0xc(%ebp)
 8000aa0:	8b 45 f4             	mov    -0xc(%ebp),%eax
 8000aa3:	0f b7 40 04          	movzwl 0x4(%eax),%eax
 8000aa7:	66 83 f8 08          	cmp    $0x8,%ax
 8000aab:	0f 87 39 ff ff ff    	ja     80009ea <print_filesystem+0x40>
 8000ab1:	83 ec 0c             	sub    $0xc,%esp
 8000ab4:	ff 75 e8             	pushl  -0x18(%ebp)
 8000ab7:	e8 6c f6 ff ff       	call   8000128 <free>
 8000abc:	83 c4 10             	add    $0x10,%esp
 8000abf:	83 ec 0c             	sub    $0xc,%esp
 8000ac2:	ff 75 ec             	pushl  -0x14(%ebp)
 8000ac5:	e8 5e f6 ff ff       	call   8000128 <free>
 8000aca:	83 c4 10             	add    $0x10,%esp
 8000acd:	90                   	nop
 8000ace:	c9                   	leave  
 8000acf:	c3                   	ret    

08000ad0 <print_filesystem_r>:
 8000ad0:	55                   	push   %ebp
 8000ad1:	89 e5                	mov    %esp,%ebp
 8000ad3:	83 ec 18             	sub    $0x18,%esp
 8000ad6:	83 ec 0c             	sub    $0xc,%esp
 8000ad9:	68 80 00 00 00       	push   $0x80
 8000ade:	e8 d3 f5 ff ff       	call   80000b6 <malloc>
 8000ae3:	83 c4 10             	add    $0x10,%esp
 8000ae6:	89 45 ec             	mov    %eax,-0x14(%ebp)
 8000ae9:	83 ec 0c             	sub    $0xc,%esp
 8000aec:	6a 09                	push   $0x9
 8000aee:	e8 c3 f5 ff ff       	call   80000b6 <malloc>
 8000af3:	83 c4 10             	add    $0x10,%esp
 8000af6:	89 45 f4             	mov    %eax,-0xc(%ebp)
 8000af9:	83 ec 0c             	sub    $0xc,%esp
 8000afc:	6a 61                	push   $0x61
 8000afe:	e8 54 f5 ff ff       	call   8000057 <putc>
 8000b03:	83 c4 10             	add    $0x10,%esp
 8000b06:	83 ec 0c             	sub    $0xc,%esp
 8000b09:	68 60 11 00 08       	push   $0x8001160
 8000b0e:	e8 53 f5 ff ff       	call   8000066 <puts>
 8000b13:	83 c4 10             	add    $0x10,%esp
 8000b16:	c6 45 f3 00          	movb   $0x0,-0xd(%ebp)
 8000b1a:	83 ec 08             	sub    $0x8,%esp
 8000b1d:	ff 75 f4             	pushl  -0xc(%ebp)
 8000b20:	ff 75 08             	pushl  0x8(%ebp)
 8000b23:	e8 5e f6 ff ff       	call   8000186 <load_directory_structure>
 8000b28:	83 c4 10             	add    $0x10,%esp
 8000b2b:	8b 45 f4             	mov    -0xc(%ebp),%eax
 8000b2e:	8b 00                	mov    (%eax),%eax
 8000b30:	83 ec 08             	sub    $0x8,%esp
 8000b33:	ff 75 ec             	pushl  -0x14(%ebp)
 8000b36:	50                   	push   %eax
 8000b37:	e8 36 f6 ff ff       	call   8000172 <load_inode>
 8000b3c:	83 c4 10             	add    $0x10,%esp
 8000b3f:	c6 45 f2 00          	movb   $0x0,-0xe(%ebp)
 8000b43:	eb 1a                	jmp    8000b5f <print_filesystem_r+0x8f>
 8000b45:	83 ec 0c             	sub    $0xc,%esp
 8000b48:	68 63 11 00 08       	push   $0x8001163
 8000b4d:	e8 14 f5 ff ff       	call   8000066 <puts>
 8000b52:	83 c4 10             	add    $0x10,%esp
 8000b55:	0f b6 45 f2          	movzbl -0xe(%ebp),%eax
 8000b59:	83 c0 01             	add    $0x1,%eax
 8000b5c:	88 45 f2             	mov    %al,-0xe(%ebp)
 8000b5f:	0f b6 45 f2          	movzbl -0xe(%ebp),%eax
 8000b63:	3b 45 0c             	cmp    0xc(%ebp),%eax
 8000b66:	7c dd                	jl     8000b45 <print_filesystem_r+0x75>
 8000b68:	8b 45 f4             	mov    -0xc(%ebp),%eax
 8000b6b:	8b 00                	mov    (%eax),%eax
 8000b6d:	83 ec 08             	sub    $0x8,%esp
 8000b70:	6a 0a                	push   $0xa
 8000b72:	50                   	push   %eax
 8000b73:	e8 c9 fb ff ff       	call   8000741 <screen_print_int>
 8000b78:	83 c4 10             	add    $0x10,%esp
 8000b7b:	83 ec 0c             	sub    $0xc,%esp
 8000b7e:	68 59 11 00 08       	push   $0x8001159
 8000b83:	e8 de f4 ff ff       	call   8000066 <puts>
 8000b88:	83 c4 10             	add    $0x10,%esp
 8000b8b:	c6 45 f2 00          	movb   $0x0,-0xe(%ebp)
 8000b8f:	eb 28                	jmp    8000bb9 <print_filesystem_r+0xe9>
 8000b91:	8b 45 f4             	mov    -0xc(%ebp),%eax
 8000b94:	8d 50 08             	lea    0x8(%eax),%edx
 8000b97:	0f b6 45 f2          	movzbl -0xe(%ebp),%eax
 8000b9b:	01 d0                	add    %edx,%eax
 8000b9d:	0f b6 00             	movzbl (%eax),%eax
 8000ba0:	0f be c0             	movsbl %al,%eax
 8000ba3:	83 ec 0c             	sub    $0xc,%esp
 8000ba6:	50                   	push   %eax
 8000ba7:	e8 ab f4 ff ff       	call   8000057 <putc>
 8000bac:	83 c4 10             	add    $0x10,%esp
 8000baf:	0f b6 45 f2          	movzbl -0xe(%ebp),%eax
 8000bb3:	83 c0 01             	add    $0x1,%eax
 8000bb6:	88 45 f2             	mov    %al,-0xe(%ebp)
 8000bb9:	0f b6 55 f2          	movzbl -0xe(%ebp),%edx
 8000bbd:	8b 45 f4             	mov    -0xc(%ebp),%eax
 8000bc0:	0f b7 40 06          	movzwl 0x6(%eax),%eax
 8000bc4:	66 39 c2             	cmp    %ax,%dx
 8000bc7:	72 c8                	jb     8000b91 <print_filesystem_r+0xc1>
 8000bc9:	8b 45 ec             	mov    -0x14(%ebp),%eax
 8000bcc:	0f b7 00             	movzwl (%eax),%eax
 8000bcf:	0f b7 c0             	movzwl %ax,%eax
 8000bd2:	25 00 f0 00 00       	and    $0xf000,%eax
 8000bd7:	3d 00 40 00 00       	cmp    $0x4000,%eax
 8000bdc:	75 1e                	jne    8000bfc <print_filesystem_r+0x12c>
 8000bde:	80 7d f3 01          	cmpb   $0x1,-0xd(%ebp)
 8000be2:	76 18                	jbe    8000bfc <print_filesystem_r+0x12c>
 8000be4:	8b 45 0c             	mov    0xc(%ebp),%eax
 8000be7:	8d 50 01             	lea    0x1(%eax),%edx
 8000bea:	8b 45 f4             	mov    -0xc(%ebp),%eax
 8000bed:	8b 00                	mov    (%eax),%eax
 8000bef:	83 ec 08             	sub    $0x8,%esp
 8000bf2:	52                   	push   %edx
 8000bf3:	50                   	push   %eax
 8000bf4:	e8 d7 fe ff ff       	call   8000ad0 <print_filesystem_r>
 8000bf9:	83 c4 10             	add    $0x10,%esp
 8000bfc:	83 ec 0c             	sub    $0xc,%esp
 8000bff:	68 5e 11 00 08       	push   $0x800115e
 8000c04:	e8 5d f4 ff ff       	call   8000066 <puts>
 8000c09:	83 c4 10             	add    $0x10,%esp
 8000c0c:	8b 45 f4             	mov    -0xc(%ebp),%eax
 8000c0f:	0f b7 40 04          	movzwl 0x4(%eax),%eax
 8000c13:	0f b7 d0             	movzwl %ax,%edx
 8000c16:	8b 45 f4             	mov    -0xc(%ebp),%eax
 8000c19:	01 d0                	add    %edx,%eax
 8000c1b:	89 45 f4             	mov    %eax,-0xc(%ebp)
 8000c1e:	0f b6 45 f3          	movzbl -0xd(%ebp),%eax
 8000c22:	83 c0 01             	add    $0x1,%eax
 8000c25:	88 45 f3             	mov    %al,-0xd(%ebp)
 8000c28:	8b 45 f4             	mov    -0xc(%ebp),%eax
 8000c2b:	0f b7 40 04          	movzwl 0x4(%eax),%eax
 8000c2f:	66 83 f8 08          	cmp    $0x8,%ax
 8000c33:	0f 87 f2 fe ff ff    	ja     8000b2b <print_filesystem_r+0x5b>
 8000c39:	90                   	nop
 8000c3a:	c9                   	leave  
 8000c3b:	c3                   	ret    
